target datalayout = "e-m:e-p270:32:32-p271:32:32-p272:64:64-i64:64-i128:128-f80:128-n8:16:32:64-S128"
target triple = "x86_64-unknown-linux-gnu"

%struct.EEPRO100State = type { %struct.PCIDevice, [8 x i8], %struct.MemoryRegion, %struct.MemoryRegion, %struct.MemoryRegion, ptr, %struct.NICConf, i8, i8, [32 x i16], ptr, i32, i32, i32, i32, i32, i32, %struct.eepro100_tx_t, i32, %struct.eepro100_stats_t, [4 x i8], [4096 x i8], [22 x i8], ptr, i16, i8 }
%struct.PCIDevice = type { %struct.DeviceState, i8, i8, ptr, ptr, ptr, ptr, ptr, i32, %struct.PCIReqIDCache, [64 x i8], [7 x %struct.PCIIORegion], %struct.AddressSpace, %struct.MemoryRegion, %struct.MemoryRegion, ptr, ptr, [3 x ptr], i8, i8, i32, i8, i32, ptr, ptr, ptr, ptr, ptr, ptr, %struct.MemoryRegion, %struct.MemoryRegion, %struct.MemoryRegion, ptr, i8, i32, i8, %struct.PCIExpressDevice, ptr, ptr, i32, i8, %struct.MemoryRegion, i32, ptr, ptr, ptr, ptr, ptr, i32 }
%struct.DeviceState = type { %struct.Object, ptr, ptr, i8, i8, i64, ptr, i32, i8, ptr, %struct.NamedGPIOListHead, %struct.NamedClockListHead, %struct.BusStateHead, i32, i32, i32, %struct.ResettableState, ptr, %struct.MemReentrancyGuard }
%struct.Object = type { ptr, ptr, ptr, i32, ptr }
%struct.NamedGPIOListHead = type { ptr }
%struct.NamedClockListHead = type { ptr }
%struct.BusStateHead = type { ptr }
%struct.ResettableState = type { i32, i8, i8 }
%struct.MemReentrancyGuard = type { i8 }
%struct.PCIReqIDCache = type { ptr, i32 }
%struct.PCIIORegion = type { i64, i64, i8, ptr, ptr }
%struct.AddressSpace = type { %struct.rcu_head, ptr, ptr, ptr, i32, i32, ptr, %union.anon.0, %union.anon.1 }
%struct.rcu_head = type { ptr, ptr }
%union.anon.0 = type { %struct.QTailQLink }
%struct.QTailQLink = type { ptr, ptr }
%union.anon.1 = type { %struct.QTailQLink }
%struct.PCIExpressDevice = type { i8, i8, i8, i16, %struct.PCIEAERLog, i16, i16, i16, %struct.PCIESriovPF, %struct.PCIESriovVF }
%struct.PCIEAERLog = type { i16, i16, ptr }
%struct.PCIESriovPF = type { i16, [7 x i8], ptr, ptr }
%struct.PCIESriovVF = type { ptr, i16 }
%struct.MemoryRegion = type { %struct.Object, i8, i8, i8, i8, i8, i8, i8, i8, i8, i8, ptr, ptr, ptr, ptr, ptr, ptr, i32, i128, i64, ptr, i64, i8, i8, i8, i8, i8, ptr, i64, i32, %union.anon.2, %union.anon.3, %union.anon.4, ptr, i32, ptr, ptr, i8 }
%union.anon.2 = type { %struct.QTailQLink }
%union.anon.3 = type { %struct.QTailQLink }
%union.anon.4 = type { %struct.QTailQLink }
%struct.NICConf = type { %struct.MACAddr, %struct.NICPeers, i32 }
%struct.MACAddr = type { [6 x i8] }
%struct.NICPeers = type { [1024 x ptr], i32 }
%struct.eepro100_tx_t = type { i16, i16, i32, i32, i16, i8, i8 }
%struct.eepro100_stats_t = type { i32, i32, i32, i32, i32, i32, i32, i32, i32, i32, i32, i32, i32, i32, i32, i32, i32, i32, i32, i16, i16, [4 x i32] }

@.str.33 = private unnamed_addr constant [26 x i8] c"../qemu/hw/net/eepro100.c\00", align 1
@.str.44 = private unnamed_addr constant [32 x i8] c"!((uintptr_t)&s->mem[addr] & 3)\00", align 1
@__PRETTY_FUNCTION__.e100_write_reg4 = private unnamed_addr constant [68 x i8] c"void e100_write_reg4(EEPRO100State *, E100RegisterOffset, uint32_t)\00", align 1
@eepro100_mdi_default = internal constant <{ [19 x i16], [13 x i16] }> <{ [19 x i16] [i16 12288, i16 30733, i16 680, i16 340, i16 1505, i16 0, i16 0, i16 0, i16 0, i16 0, i16 0, i16 0, i16 0, i16 0, i16 0, i16 0, i16 3, i16 0, i16 1], [13 x i16] zeroinitializer }>, align 16

; Function Attrs: nounwind sspstrong uwtable
define internal void @stl_he_p(ptr noundef %ptr, i32 noundef %v) #0 {
entry:
  %ptr.addr = alloca ptr, align 8
  %v.addr = alloca i32, align 4
  store ptr %ptr, ptr %ptr.addr, align 8
  store i32 %v, ptr %v.addr, align 4
  %0 = load ptr, ptr %ptr.addr, align 8
  call void @llvm.memcpy.p0.p0.i64(ptr align 1 %0, ptr align 4 %v.addr, i64 4, i1 false)
  ret void
}

; Function Attrs: nounwind sspstrong uwtable
define internal void @stl_le_p(ptr noundef %ptr, i32 noundef %v) #0 {
entry:
  %ptr.addr = alloca ptr, align 8
  %v.addr = alloca i32, align 4
  store ptr %ptr, ptr %ptr.addr, align 8
  store i32 %v, ptr %v.addr, align 4
  %0 = load ptr, ptr %ptr.addr, align 8
  %1 = load i32, ptr %v.addr, align 4
  call void @stl_he_p(ptr noundef %0, i32 noundef %1)
  ret void
}

; Function Attrs: nounwind sspstrong uwtable
define internal void @e100_write_reg4(ptr noundef %s, i32 noundef %addr, i32 noundef %val) #0 {
entry:
  %s.addr = alloca ptr, align 8
  %addr.addr = alloca i32, align 4
  %val.addr = alloca i32, align 4
  store ptr %s, ptr %s.addr, align 8
  store i32 %addr, ptr %addr.addr, align 4
  store i32 %val, ptr %val.addr, align 4
  %0 = load ptr, ptr %s.addr, align 8
  %mem = getelementptr inbounds %struct.EEPRO100State, ptr %0, i32 0, i32 21
  %1 = load i32, ptr %addr.addr, align 4
  %idxprom = zext i32 %1 to i64
  %arrayidx = getelementptr [4096 x i8], ptr %mem, i64 0, i64 %idxprom
  %2 = ptrtoint ptr %arrayidx to i64
  %and = and i64 %2, 3
  %tobool = icmp ne i64 %and, 0
  br i1 %tobool, label %if.else, label %if.then

if.then:                                          ; preds = %entry
  br label %if.end

if.else:                                          ; preds = %entry
  call void @__assert_fail(ptr noundef @.str.44, ptr noundef @.str.33, i32 noundef 357, ptr noundef @__PRETTY_FUNCTION__.e100_write_reg4) #8
  unreachable

if.end:                                           ; preds = %if.then
  %3 = load ptr, ptr %s.addr, align 8
  %mem1 = getelementptr inbounds %struct.EEPRO100State, ptr %3, i32 0, i32 21
  %4 = load i32, ptr %addr.addr, align 4
  %idxprom2 = zext i32 %4 to i64
  %arrayidx3 = getelementptr [4096 x i8], ptr %mem1, i64 0, i64 %idxprom2
  %5 = load i32, ptr %val.addr, align 4
  call void @stl_le_p(ptr noundef %arrayidx3, i32 noundef %5)
  ret void
}

; Function Attrs: nounwind sspstrong uwtable
define internal void @nic_selective_reset(ptr noundef %s) #0 {
entry:
  %s.addr = alloca ptr, align 8
  %i = alloca i64, align 8
  %eeprom_contents = alloca ptr, align 8
  %sum = alloca i16, align 2
  store ptr %s, ptr %s.addr, align 8
  %0 = load ptr, ptr %s.addr, align 8
  %eeprom = getelementptr inbounds %struct.EEPRO100State, ptr %0, i32 0, i32 10
  %1 = load ptr, ptr %eeprom, align 8
  %call = call ptr @eeprom93xx_data(ptr noundef %1)
  store ptr %call, ptr %eeprom_contents, align 8
  %2 = load ptr, ptr %eeprom_contents, align 8
  %3 = load ptr, ptr %s.addr, align 8
  %conf = getelementptr inbounds %struct.EEPRO100State, ptr %3, i32 0, i32 6
  %macaddr = getelementptr inbounds %struct.NICConf, ptr %conf, i32 0, i32 0
  %a = getelementptr inbounds %struct.MACAddr, ptr %macaddr, i32 0, i32 0
  %arraydecay = getelementptr inbounds [6 x i8], ptr %a, i64 0, i64 0
  call void @llvm.memcpy.p0.p0.i64(ptr align 2 %2, ptr align 8 %arraydecay, i64 6, i1 false)
  %4 = load ptr, ptr %eeprom_contents, align 8
  %arrayidx = getelementptr i16, ptr %4, i64 5
  store i16 16384, ptr %arrayidx, align 2
  %5 = load ptr, ptr %s.addr, align 8
  %device = getelementptr inbounds %struct.EEPRO100State, ptr %5, i32 0, i32 11
  %6 = load i32, ptr %device, align 16
  %cmp = icmp eq i32 %6, 8541563
  br i1 %cmp, label %if.then, label %lor.lhs.false

lor.lhs.false:                                    ; preds = %entry
  %7 = load ptr, ptr %s.addr, align 8
  %device1 = getelementptr inbounds %struct.EEPRO100State, ptr %7, i32 0, i32 11
  %8 = load i32, ptr %device1, align 16
  %cmp2 = icmp eq i32 %8, 8541564
  br i1 %cmp2, label %if.then, label %if.end

if.then:                                          ; preds = %lor.lhs.false, %entry
  %9 = load ptr, ptr %eeprom_contents, align 8
  %arrayidx3 = getelementptr i16, ptr %9, i64 5
  store i16 256, ptr %arrayidx3, align 2
  br label %if.end

if.end:                                           ; preds = %if.then, %lor.lhs.false
  %10 = load ptr, ptr %eeprom_contents, align 8
  %arrayidx4 = getelementptr i16, ptr %10, i64 6
  store i16 1, ptr %arrayidx4, align 2
  store i16 0, ptr %sum, align 2
  store i64 0, ptr %i, align 8
  br label %for.cond

for.cond:                                         ; preds = %for.inc, %if.end
  %11 = load i64, ptr %i, align 8
  %cmp5 = icmp ult i64 %11, 63
  br i1 %cmp5, label %for.body, label %for.end

for.body:                                         ; preds = %for.cond
  %12 = load ptr, ptr %eeprom_contents, align 8
  %13 = load i64, ptr %i, align 8
  %arrayidx6 = getelementptr i16, ptr %12, i64 %13
  %14 = load i16, ptr %arrayidx6, align 2
  %conv = zext i16 %14 to i32
  %15 = load i16, ptr %sum, align 2
  %conv7 = zext i16 %15 to i32
  %add = add i32 %conv7, %conv
  %conv8 = trunc i32 %add to i16
  store i16 %conv8, ptr %sum, align 2
  br label %for.inc

for.inc:                                          ; preds = %for.body
  %16 = load i64, ptr %i, align 8
  %inc = add i64 %16, 1
  store i64 %inc, ptr %i, align 8
  br label %for.cond, !llvm.loop !13

for.end:                                          ; preds = %for.cond
  %17 = load i16, ptr %sum, align 2
  %conv9 = zext i16 %17 to i32
  %sub = sub i32 47802, %conv9
  %conv10 = trunc i32 %sub to i16
  %18 = load ptr, ptr %eeprom_contents, align 8
  %arrayidx11 = getelementptr i16, ptr %18, i64 63
  store i16 %conv10, ptr %arrayidx11, align 2
  %19 = load ptr, ptr %s.addr, align 8
  %mem = getelementptr inbounds %struct.EEPRO100State, ptr %19, i32 0, i32 21
  %arraydecay12 = getelementptr inbounds [4096 x i8], ptr %mem, i64 0, i64 0
  call void @llvm.memset.p0.i64(ptr align 16 %arraydecay12, i8 0, i64 4096, i1 false)
  %20 = load ptr, ptr %s.addr, align 8
  call void @e100_write_reg4(ptr noundef %20, i32 noundef 16, i32 noundef 2097152)
  %21 = load ptr, ptr %s.addr, align 8
  %mdimem = getelementptr inbounds %struct.EEPRO100State, ptr %21, i32 0, i32 9
  %arrayidx13 = getelementptr [32 x i16], ptr %mdimem, i64 0, i64 0
  call void @llvm.memcpy.p0.p0.i64(ptr align 2 %arrayidx13, ptr align 16 @eepro100_mdi_default, i64 64, i1 false)
  ret void
}

; Function Attrs: nounwind sspstrong uwtable
define internal void @nic_reset(ptr noundef %opaque) #0 {
entry:
  %opaque.addr = alloca ptr, align 8
  %s = alloca ptr, align 8
  store ptr %opaque, ptr %opaque.addr, align 8
  %0 = load ptr, ptr %opaque.addr, align 8
  store ptr %0, ptr %s, align 8
  %1 = load ptr, ptr %s, align 8
  %mult = getelementptr inbounds %struct.EEPRO100State, ptr %1, i32 0, i32 1
  %arrayidx = getelementptr [8 x i8], ptr %mult, i64 0, i64 0
  call void @llvm.memset.p0.i64(ptr align 16 %arrayidx, i8 0, i64 8, i1 false)
  %2 = load ptr, ptr %s, align 8
  call void @nic_selective_reset(ptr noundef %2)
  ret void
}