; Function Attrs: nounwind sspstrong uwtable
define internal void @nic_reset(ptr noundef initializes((2608, 2616)) %opaque) #0 {
entry:
  %mult = getelementptr inbounds nuw i8, ptr %opaque, i64 2608
  store i64 0, ptr %mult, align 16
  %eeprom.i = getelementptr inbounds nuw i8, ptr %opaque, i64 11736
  %0 = load ptr, ptr %eeprom.i, align 8
  %call.i = tail call ptr @eeprom93xx_data(ptr noundef %0) #12
  %conf.i = getelementptr inbounds nuw i8, ptr %opaque, i64 3448
  tail call void @llvm.memcpy.p0.p0.i64(ptr noundef nonnull align 2 dereferenceable(6) %call.i, ptr noundef nonnull align 8 dereferenceable(6) %conf.i, i64 6, i1 false)
  %arrayidx.i = getelementptr i8, ptr %call.i, i64 10
  store i16 16384, ptr %arrayidx.i, align 2
  %device.i = getelementptr inbounds nuw i8, ptr %opaque, i64 11744
  %1 = load i32, ptr %device.i, align 16
  %.off.i = add i32 %1, -8541563
  %switch.i = icmp ult i32 %.off.i, 2
  %spec.store.select.i = select i1 %switch.i, i16 256, i16 16384
  store i16 %spec.store.select.i, ptr %arrayidx.i, align 2
  %arrayidx4.i = getelementptr i8, ptr %call.i, i64 12
  store i16 1, ptr %arrayidx4.i, align 2
  br label %for.body.i

for.body.i:                                       ; preds = %for.body.i, %entry
  %sum.016.i = phi i16 [ 0, %entry ], [ %add.i, %for.body.i ]
  %i.015.i = phi i64 [ 0, %entry ], [ %inc.i, %for.body.i ]
  %arrayidx6.i = getelementptr i16, ptr %call.i, i64 %i.015.i
  %2 = load i16, ptr %arrayidx6.i, align 2
  %add.i = add i16 %2, %sum.016.i
  %inc.i = add nuw nsw i64 %i.015.i, 1
  %exitcond.not.i = icmp eq i64 %inc.i, 63
  br i1 %exitcond.not.i, label %for.end.i, label %for.body.i, !llvm.loop !8

for.end.i:                                        ; preds = %for.body.i
  %sub.i = sub i16 -17734, %add.i
  %arrayidx11.i = getelementptr i8, ptr %call.i, i64 126
  store i16 %sub.i, ptr %arrayidx11.i, align 2
  %mem.i = getelementptr inbounds nuw i8, ptr %opaque, i64 11888
  tail call void @llvm.memset.p0.i64(ptr noundef nonnull align 16 dereferenceable(4096) %mem.i, i8 0, i64 4096, i1 false)
  %arrayidx.i.i = getelementptr i8, ptr %opaque, i64 11904
  %3 = ptrtoint ptr %arrayidx.i.i to i64
  %and.i.i = and i64 %3, 3
  %tobool.not.i.i = icmp eq i64 %and.i.i, 0
  br i1 %tobool.not.i.i, label %nic_selective_reset.exit, label %if.else.i.i

if.else.i.i:                                      ; preds = %for.end.i
  tail call void @__assert_fail(ptr noundef nonnull @.str.44, ptr noundef nonnull @.str.33, i32 noundef 357, ptr noundef nonnull @__PRETTY_FUNCTION__.e100_write_reg4) #14
  unreachable

nic_selective_reset.exit:                         ; preds = %for.end.i
  store i32 2097152, ptr %arrayidx.i.i, align 1
  %mdimem.i = getelementptr inbounds nuw i8, ptr %opaque, i64 11666
  tail call void @llvm.memcpy.p0.p0.i64(ptr noundef nonnull align 2 dereferenceable(64) %mdimem.i, ptr noundef nonnull align 16 dereferenceable(64) @eepro100_mdi_default, i64 64, i1 false)
  ret void
}